
mma8451_sw.ko:     file format elf32-littlearm


Disassembly of section .text:

00000000 <sw_probe>:
   0:	e1a03000 	mov	r3, r0
   4:	e92d4070 	push	{r4, r5, r6, lr}
   8:	e3005000 	movw	r5, #0
   c:	e5931004 	ldr	r1, [r3, #4]
  10:	e3405000 	movt	r5, #0
  14:	e3006000 	movw	r6, #0
  18:	e5932008 	ldr	r2, [r3, #8]
  1c:	e3406000 	movt	r6, #0
  20:	e5900000 	ldr	r0, [r0]
  24:	e1a04005 	mov	r4, r5
  28:	e8a40007 	stmia	r4!, {r0, r1, r2}
  2c:	e1a00006 	mov	r0, r6
  30:	e3a01014 	mov	r1, #20
  34:	ebfffffe 	bl	0 <__memzero>
  38:	e3001000 	movw	r1, #0
  3c:	e1a02004 	mov	r2, r4
  40:	e1a00006 	mov	r0, r6
  44:	e3401000 	movt	r1, #0
  48:	ebfffffe 	bl	0 <__mutex_init>
  4c:	e3a00f6e 	mov	r0, #440	; 0x1b8
  50:	ebfffffe 	bl	0 <ldr_malloc>
  54:	e3a02000 	mov	r2, #0
  58:	e1a03000 	mov	r3, r0
  5c:	e3a01707 	mov	r1, #1835008	; 0x1c0000
  60:	e585000c 	str	r0, [r5, #12]
  64:	e5831000 	str	r1, [r3]
  68:	e1a00002 	mov	r0, r2
  6c:	e1c320b4 	strh	r2, [r3, #4]
  70:	e8bd8070 	pop	{r4, r5, r6, pc}

00000074 <sw_mma8451_read_data>:
  74:	e92d43f0 	push	{r4, r5, r6, r7, r8, r9, lr}
  78:	e3004000 	movw	r4, #0
  7c:	e24dd00c 	sub	sp, sp, #12
  80:	e3404000 	movt	r4, #0
  84:	e1a07000 	mov	r7, r0
  88:	e28d3001 	add	r3, sp, #1
  8c:	e594000c 	ldr	r0, [r4, #12]
  90:	e3a02007 	mov	r2, #7
  94:	e3a01001 	mov	r1, #1
  98:	ebfffffe 	bl	0 <i2c_smbus_read_i2c_block_data>
  9c:	e3500006 	cmp	r0, #6
  a0:	da00003d 	ble	19c <sw_mma8451_read_data+0x128>
  a4:	e3004000 	movw	r4, #0
  a8:	e3404000 	movt	r4, #0
  ac:	e1d431b2 	ldrh	r3, [r4, #18]
  b0:	e3130004 	tst	r3, #4
  b4:	1a000033 	bne	188 <sw_mma8451_read_data+0x114>
  b8:	e28d0001 	add	r0, sp, #1
  bc:	e3a01007 	mov	r1, #7
  c0:	ebfffffe 	bl	0 <ldr_dump>
  c4:	e1d402ba 	ldrh	r0, [r4, #42]	; 0x2a
  c8:	e5dd1001 	ldrb	r1, [sp, #1]
  cc:	e5dd9002 	ldrb	r9, [sp, #2]
  d0:	e5dd2003 	ldrb	r2, [sp, #3]
  d4:	e7e00150 	ubfx	r0, r0, #2, #1
  d8:	e5dd8004 	ldrb	r8, [sp, #4]
  dc:	e3500000 	cmp	r0, #0
  e0:	e5dd3005 	ldrb	r3, [sp, #5]
  e4:	01a05000 	moveq	r5, r0
  e8:	e5dd6006 	ldrb	r6, [sp, #6]
  ec:	e1899401 	orr	r9, r9, r1, lsl #8
  f0:	e1888402 	orr	r8, r8, r2, lsl #8
  f4:	e6bf9079 	sxth	r9, r9
  f8:	e1866403 	orr	r6, r6, r3, lsl #8
  fc:	e6bf8078 	sxth	r8, r8
 100:	e6bf6076 	sxth	r6, r6
 104:	1a000019 	bne	170 <sw_mma8451_read_data+0xfc>
 108:	e1d434b2 	ldrh	r3, [r4, #66]	; 0x42
 10c:	e3130004 	tst	r3, #4
 110:	1a00000a 	bne	140 <sw_mma8451_read_data+0xcc>
 114:	e3570000 	cmp	r7, #0
 118:	0a00002b 	beq	1cc <sw_mma8451_read_data+0x158>
 11c:	e1c790b0 	strh	r9, [r7]
 120:	e1c780b4 	strh	r8, [r7, #4]
 124:	e1c760b8 	strh	r6, [r7, #8]
 128:	e1d435ba 	ldrh	r3, [r4, #90]	; 0x5a
 12c:	e3130004 	tst	r3, #4
 130:	1a000007 	bne	154 <sw_mma8451_read_data+0xe0>
 134:	e1a00005 	mov	r0, r5
 138:	e28dd00c 	add	sp, sp, #12
 13c:	e8bd83f0 	pop	{r4, r5, r6, r7, r8, r9, pc}
 140:	e3001000 	movw	r1, #0
 144:	e59f0094 	ldr	r0, [pc, #148]	; 1e0 <sw_mma8451_read_data+0x16c>
 148:	e3401000 	movt	r1, #0
 14c:	ebfffffe 	bl	0 <__dynamic_pr_debug>
 150:	eaffffef 	b	114 <sw_mma8451_read_data+0xa0>
 154:	e3001000 	movw	r1, #0
 158:	e59f0084 	ldr	r0, [pc, #132]	; 1e4 <sw_mma8451_read_data+0x170>
 15c:	e3401000 	movt	r1, #0
 160:	ebfffffe 	bl	0 <__dynamic_pr_debug>
 164:	e1a00005 	mov	r0, r5
 168:	e28dd00c 	add	sp, sp, #12
 16c:	e8bd83f0 	pop	{r4, r5, r6, r7, r8, r9, pc}
 170:	e3001000 	movw	r1, #0
 174:	e59f006c 	ldr	r0, [pc, #108]	; 1e8 <sw_mma8451_read_data+0x174>
 178:	e3401000 	movt	r1, #0
 17c:	e3a05000 	mov	r5, #0
 180:	ebfffffe 	bl	0 <__dynamic_pr_debug>
 184:	eaffffdf 	b	108 <sw_mma8451_read_data+0x94>
 188:	e3001000 	movw	r1, #0
 18c:	e1a00004 	mov	r0, r4
 190:	e3401000 	movt	r1, #0
 194:	ebfffffe 	bl	0 <__dynamic_pr_debug>
 198:	eaffffc6 	b	b8 <sw_mma8451_read_data+0x44>
 19c:	e594000c 	ldr	r0, [r4, #12]
 1a0:	e3001000 	movw	r1, #0
 1a4:	e3a06000 	mov	r6, #0
 1a8:	e3401000 	movt	r1, #0
 1ac:	e3004000 	movw	r4, #0
 1b0:	e1a08006 	mov	r8, r6
 1b4:	e2800020 	add	r0, r0, #32
 1b8:	e3404000 	movt	r4, #0
 1bc:	ebfffffe 	bl	0 <dev_err>
 1c0:	e1a09006 	mov	r9, r6
 1c4:	e3e05004 	mvn	r5, #4
 1c8:	eaffffce 	b	108 <sw_mma8451_read_data+0x94>
 1cc:	e3000000 	movw	r0, #0
 1d0:	e3e05000 	mvn	r5, #0
 1d4:	e3400000 	movt	r0, #0
 1d8:	ebfffffe 	bl	0 <printk>
 1dc:	eaffffd4 	b	134 <sw_mma8451_read_data+0xc0>
 1e0:	00000030 	andeq	r0, r0, r0, lsr r0
 1e4:	00000048 	andeq	r0, r0, r8, asr #32
 1e8:	00000018 	andeq	r0, r0, r8, lsl r0

000001ec <dispatch>:
 1ec:	e3500000 	cmp	r0, #0
 1f0:	e92d4070 	push	{r4, r5, r6, lr}
 1f4:	e1a05001 	mov	r5, r1
 1f8:	0a00000e 	beq	238 <dispatch+0x4c>
 1fc:	e3500001 	cmp	r0, #1
 200:	1a000022 	bne	290 <dispatch+0xa4>
 204:	e3004000 	movw	r4, #0
 208:	e3404000 	movt	r4, #0
 20c:	e1d432ba 	ldrh	r3, [r4, #42]	; 0x2a
 210:	e3130004 	tst	r3, #4
 214:	1a000013 	bne	268 <dispatch+0x7c>
 218:	e1a00005 	mov	r0, r5
 21c:	ebfffffe 	bl	74 <sw_mma8451_read_data>
 220:	e1d434b2 	ldrh	r3, [r4, #66]	; 0x42
 224:	e1a05000 	mov	r5, r0
 228:	e3130004 	tst	r3, #4
 22c:	1a000012 	bne	27c <dispatch+0x90>
 230:	e1a00005 	mov	r0, r5
 234:	e8bd8070 	pop	{r4, r5, r6, pc}
 238:	e3000000 	movw	r0, #0
 23c:	e3400000 	movt	r0, #0
 240:	e1d031b2 	ldrh	r3, [r0, #18]
 244:	e3130004 	tst	r3, #4
 248:	1a000002 	bne	258 <dispatch+0x6c>
 24c:	e1a00005 	mov	r0, r5
 250:	e8bd4070 	pop	{r4, r5, r6, lr}
 254:	eafffffe 	b	0 <sw_probe>
 258:	e3001000 	movw	r1, #0
 25c:	e3401000 	movt	r1, #0
 260:	ebfffffe 	bl	0 <__dynamic_pr_debug>
 264:	eafffff8 	b	24c <dispatch+0x60>
 268:	e3001000 	movw	r1, #0
 26c:	e2840018 	add	r0, r4, #24
 270:	e3401000 	movt	r1, #0
 274:	ebfffffe 	bl	0 <__dynamic_pr_debug>
 278:	eaffffe6 	b	218 <dispatch+0x2c>
 27c:	e3001000 	movw	r1, #0
 280:	e59f001c 	ldr	r0, [pc, #28]	; 2a4 <dispatch+0xb8>
 284:	e3401000 	movt	r1, #0
 288:	ebfffffe 	bl	0 <__dynamic_pr_debug>
 28c:	eaffffe7 	b	230 <dispatch+0x44>
 290:	e3000000 	movw	r0, #0
 294:	e3a05000 	mov	r5, #0
 298:	e3400000 	movt	r0, #0
 29c:	ebfffffe 	bl	0 <printk>
 2a0:	eaffffe2 	b	230 <dispatch+0x44>
 2a4:	000000c0 	andeq	r0, r0, r0, asr #1

Disassembly of section .init.text:

00000000 <init_module>:
   0:	e3003000 	movw	r3, #0
   4:	e92d4010 	push	{r4, lr}
   8:	e3403000 	movt	r3, #0
   c:	e1a04003 	mov	r4, r3
  10:	e1d327b2 	ldrh	r2, [r3, #114]	; 0x72
  14:	e3120004 	tst	r2, #4
  18:	0a000005 	beq	34 <init_module+0x34>
  1c:	e3002000 	movw	r2, #0
  20:	e3001000 	movw	r1, #0
  24:	e3402000 	movt	r2, #0
  28:	e3401000 	movt	r1, #0
  2c:	e2830060 	add	r0, r3, #96	; 0x60
  30:	ebfffffe 	bl	0 <__dynamic_pr_debug>
  34:	e3002000 	movw	r2, #0
  38:	e3001000 	movw	r1, #0
  3c:	e3402000 	movt	r2, #0
  40:	e3401000 	movt	r1, #0
  44:	e3a00002 	mov	r0, #2
  48:	ebfffffe 	bl	0 <ldr_sw_driver_register>
  4c:	e1d438ba 	ldrh	r3, [r4, #138]	; 0x8a
  50:	e3130004 	tst	r3, #4
  54:	0a000003 	beq	68 <init_module+0x68>
  58:	e3001000 	movw	r1, #0
  5c:	e59f000c 	ldr	r0, [pc, #12]	; 70 <init_module+0x70>
  60:	e3401000 	movt	r1, #0
  64:	ebfffffe 	bl	0 <__dynamic_pr_debug>
  68:	e3a00000 	mov	r0, #0
  6c:	e8bd8010 	pop	{r4, pc}
  70:	00000078 	andeq	r0, r0, r8, ror r0

Disassembly of section .exit.text:

00000000 <cleanup_module>:
   0:	e12fff1e 	bx	lr

Disassembly of section .modinfo:

00000000 <__UNIQUE_ID_license10>:
   0:	6563696c 	strbvs	r6, [r3, #-2412]!	; 0xfffff694
   4:	3d65736e 	stclcc	3, cr7, [r5, #-440]!	; 0xfffffe48
   8:	004c5047 	subeq	r5, ip, r7, asr #32

0000000c <__UNIQUE_ID_description9>:
   c:	63736564 	cmnvs	r3, #100, 10	; 0x19000000
  10:	74706972 	ldrbtvc	r6, [r0], #-2418	; 0xfffff68e
  14:	3d6e6f69 	stclcc	15, cr6, [lr, #-420]!	; 0xfffffe5c
  18:	38414d4d 	stmdacc	r1, {r0, r2, r3, r6, r8, sl, fp, lr}^
  1c:	20313534 	eorscs	r3, r1, r4, lsr r5
  20:	78412d33 	stmdavc	r1, {r0, r1, r4, r5, r8, sl, fp, sp}^
  24:	4f207369 	svcmi	0x00207369
  28:	6e656972 			; <UNDEFINED> instruction: 0x6e656972
  2c:	69746174 	ldmdbvs	r4!, {r2, r4, r5, r6, r8, sp, lr}^
  30:	4d2f6e6f 	stcmi	14, cr6, [pc, #-444]!	; fffffe7c <dispatch+0xfffffc90>
  34:	6f69746f 	svcvs	0x0069746f
  38:	6544206e 	strbvs	r2, [r4, #-110]	; 0xffffff92
  3c:	74636574 	strbtvc	r6, [r3], #-1396	; 0xfffffa8c
  40:	206e6f69 	rsbcs	r6, lr, r9, ror #30
  44:	736e6553 	cmnvc	lr, #348127232	; 0x14c00000
  48:	6420726f 	strtvs	r7, [r0], #-623	; 0xfffffd91
  4c:	65766972 	ldrbvs	r6, [r6, #-2418]!	; 0xfffff68e
  50:	75610072 	strbvc	r0, [r1, #-114]!	; 0xffffff8e

00000052 <__UNIQUE_ID_author8>:
  52:	68747561 	ldmdavs	r4!, {r0, r5, r6, r8, sl, ip, sp, lr}^
  56:	463d726f 	ldrtmi	r7, [sp], -pc, ror #4
  5a:	73656572 	cmnvc	r5, #478150656	; 0x1c800000
  5e:	656c6163 	strbvs	r6, [ip, #-355]!	; 0xfffffe9d
  62:	6d655320 	stclvs	3, cr5, [r5, #-128]!	; 0xffffff80
  66:	6e6f6369 	cdpvs	3, 6, cr6, cr15, cr9, {3}
  6a:	74637564 	strbtvc	r7, [r3], #-1380	; 0xfffffa9c
  6e:	202c726f 	eorcs	r7, ip, pc, ror #4
  72:	2e636e49 	cdpcs	14, 6, cr6, cr3, cr9, {2}
	...

00000078 <__UNIQUE_ID_srcversion11>:
  78:	76637273 			; <UNDEFINED> instruction: 0x76637273
  7c:	69737265 	ldmdbvs	r3!, {r0, r2, r5, r6, r9, ip, sp, lr}^
  80:	333d6e6f 	teqcc	sp, #1776	; 0x6f0
  84:	35303644 	ldrcc	r3, [r0, #-1604]!	; 0xfffff9bc
  88:	30413530 	subcc	r3, r1, r0, lsr r5
  8c:	38323341 	ldmdacc	r2!, {r0, r6, r8, r9, ip, sp}
  90:	42384345 	eorsmi	r4, r8, #335544321	; 0x14000001
  94:	33363346 	teqcc	r6, #402653185	; 0x18000001
  98:	61004541 	tstvs	r0, r1, asr #10

0000009b <__UNIQUE_ID_alias10>:
  9b:	61696c61 	cmnvs	r9, r1, ror #24
  9f:	32693d73 	rsbcc	r3, r9, #7360	; 0x1cc0
  a3:	6d6d3a63 	vpushvs	{s7-s105}
  a7:	35343861 	ldrcc	r3, [r4, #-2145]!	; 0xfffff79f
  ab:	00000031 	andeq	r0, r0, r1, lsr r0
	...

000000b0 <__module_depends>:
  b0:	65706564 	ldrbvs	r6, [r0, #-1380]!	; 0xfffffa9c
  b4:	3d73646e 	cfldrdcc	mvd6, [r3, #-440]!	; 0xfffffe48
	...

000000b9 <__UNIQUE_ID_name9>:
  b9:	656d616e 	strbvs	r6, [sp, #-366]!	; 0xfffffe92
  bd:	616d6d3d 	cmnvs	sp, sp, lsr sp
  c1:	31353438 	teqcc	r5, r8, lsr r4
  c5:	0077735f 	rsbseq	r7, r7, pc, asr r3

000000c9 <__UNIQUE_ID_vermagic8>:
  c9:	6d726576 	cfldr64vs	mvdx6, [r2, #-472]!	; 0xfffffe28
  cd:	63696761 	cmnvs	r9, #25427968	; 0x1840000
  d1:	312e343d 			; <UNDEFINED> instruction: 0x312e343d
  d5:	38392e34 	ldmdacc	r9!, {r2, r4, r5, r9, sl, fp, sp}
  d9:	6265672d 	rsbvs	r6, r5, #11796480	; 0xb40000
  dd:	66656562 	strbtvs	r6, [r5], -r2, ror #10
  e1:	4d532031 	ldclmi	0, cr2, [r3, #-196]	; 0xffffff3c
  e5:	72702050 	rsbsvc	r2, r0, #80	; 0x50
  e9:	706d6565 	rsbvc	r6, sp, r5, ror #10
  ed:	6f6d2074 	svcvs	0x006d2074
  f1:	6e755f64 	cdpvs	15, 7, cr5, cr5, cr4, {3}
  f5:	64616f6c 	strbtvs	r6, [r1], #-3948	; 0xfffff094
  f9:	646f6d20 	strbtvs	r6, [pc], #-3360	; 101 <__UNIQUE_ID_vermagic8+0x38>
  fd:	73726576 	cmnvc	r2, #494927872	; 0x1d800000
 101:	736e6f69 	cmnvc	lr, #420	; 0x1a4
 105:	4d524120 	ldfmie	f4, [r2, #-128]	; 0xffffff80
 109:	70203776 	eorvc	r3, r0, r6, ror r7
 10d:	20387632 	eorscs	r7, r8, r2, lsr r6
	...

Disassembly of section __verbose:

00000000 <descriptor.29152>:
   0:	000000fc 	strdeq	r0, [r0], -ip
   4:	00000010 	andeq	r0, r0, r0, lsl r0
   8:	00000108 	andeq	r0, r0, r8, lsl #2
   c:	00000028 	andeq	r0, r0, r8, lsr #32
  10:	000000d5 	ldrdeq	r0, [r0], -r5
  14:	00000000 	andeq	r0, r0, r0

00000018 <descriptor.29154>:
  18:	000000fc 	strdeq	r0, [r0], -ip
  1c:	00000010 	andeq	r0, r0, r0, lsl r0
  20:	00000108 	andeq	r0, r0, r8, lsl #2
  24:	00000054 	andeq	r0, r0, r4, asr r0
  28:	000000dc 	ldrdeq	r0, [r0], -ip
  2c:	00000000 	andeq	r0, r0, r0

00000030 <descriptor.29331>:
  30:	000000fc 	strdeq	r0, [r0], -ip
  34:	00000024 	andeq	r0, r0, r4, lsr #32
  38:	00000108 	andeq	r0, r0, r8, lsl #2
  3c:	00000074 	andeq	r0, r0, r4, ror r0
  40:	00000275 	andeq	r0, r0, r5, ror r2
  44:	00000000 	andeq	r0, r0, r0

00000048 <descriptor.29339>:
  48:	000000fc 	strdeq	r0, [r0], -ip
  4c:	00000024 	andeq	r0, r0, r4, lsr #32
  50:	00000108 	andeq	r0, r0, r8, lsl #2
  54:	000000b4 	strheq	r0, [r0], -r4
  58:	00000285 	andeq	r0, r0, r5, lsl #5
  5c:	00000000 	andeq	r0, r0, r0

00000060 <descriptor.29343>:
  60:	000000fc 	strdeq	r0, [r0], -ip
  64:	00000000 	andeq	r0, r0, r0
  68:	00000108 	andeq	r0, r0, r8, lsl #2
  6c:	000000d4 	ldrdeq	r0, [r0], -r4
  70:	0000028d 	andeq	r0, r0, sp, lsl #5
  74:	00000000 	andeq	r0, r0, r0

00000078 <descriptor.29345>:
  78:	000000fc 	strdeq	r0, [r0], -ip
  7c:	00000000 	andeq	r0, r0, r0
  80:	00000108 	andeq	r0, r0, r8, lsl #2
  84:	000000e0 	andeq	r0, r0, r0, ror #1
  88:	00000290 	muleq	r0, r0, r2
  8c:	00000000 	andeq	r0, r0, r0

00000090 <descriptor.29056>:
  90:	000001c8 	andeq	r0, r0, r8, asr #3
  94:	0000006c 	andeq	r0, r0, ip, rrx
  98:	000001d4 	ldrdeq	r0, [r0], -r4
  9c:	00000154 	andeq	r0, r0, r4, asr r1
  a0:	00000018 	andeq	r0, r0, r8, lsl r0
  a4:	00000000 	andeq	r0, r0, r0

000000a8 <descriptor.29060>:
  a8:	000001c8 	andeq	r0, r0, r8, asr #3
  ac:	0000006c 	andeq	r0, r0, ip, rrx
  b0:	000001d4 	ldrdeq	r0, [r0], -r4
  b4:	00000168 	andeq	r0, r0, r8, ror #2
  b8:	0000001d 	andeq	r0, r0, sp, lsl r0
  bc:	00000000 	andeq	r0, r0, r0

000000c0 <descriptor.29061>:
  c0:	000001c8 	andeq	r0, r0, r8, asr #3
  c4:	0000006c 	andeq	r0, r0, ip, rrx
  c8:	000001d4 	ldrdeq	r0, [r0], -r4
  cc:	00000188 	andeq	r0, r0, r8, lsl #3
  d0:	0000001f 	andeq	r0, r0, pc, lsl r0
  d4:	00000000 	andeq	r0, r0, r0

Disassembly of section __versions:

00000000 <____versions>:
   0:	833850da 	teqhi	r8, #218	; 0xda
   4:	75646f6d 	strbvc	r6, [r4, #-3949]!	; 0xfffff093
   8:	6c5f656c 	cfldr64vs	mvdx6, [pc], {108}	; 0x6c
   c:	756f7961 	strbvc	r7, [pc, #-2401]!	; fffff6b3 <dispatch+0xfffff4c7>
  10:	00000074 	andeq	r0, r0, r4, ror r0
	...
  40:	8a84fcd7 	bhi	fe13f3a4 <dispatch+0xfe13f1b8>
  44:	5f633269 	svcpl	0x00633269
  48:	75626d73 	strbvc	r6, [r2, #-3443]!	; 0xfffff28d
  4c:	65725f73 	ldrbvs	r5, [r2, #-3955]!	; 0xfffff08d
  50:	695f6461 	ldmdbvs	pc, {r0, r5, r6, sl, sp, lr}^	; <UNPREDICTABLE>
  54:	625f6332 	subsvs	r6, pc, #-939524096	; 0xc8000000
  58:	6b636f6c 	blvs	18dbe10 <dispatch+0x18dbc24>
  5c:	7461645f 	strbtvc	r6, [r1], #-1119	; 0xfffffba1
  60:	00000061 	andeq	r0, r0, r1, rrx
	...
  80:	44b1d426 	ldrtmi	sp, [r1], #1062	; 0x426
  84:	79645f5f 	stmdbvc	r4!, {r0, r1, r2, r3, r4, r6, r8, r9, sl, fp, ip, lr}^
  88:	696d616e 	stmdbvs	sp!, {r1, r2, r3, r5, r6, r8, sp, lr}^
  8c:	72705f63 	rsbsvc	r5, r0, #396	; 0x18c
  90:	6265645f 	rsbvs	r6, r5, #1593835520	; 0x5f000000
  94:	00006775 	andeq	r6, r0, r5, ror r7
	...
  c0:	0fa2a45e 	svceq	0x00a2a45e
  c4:	656d5f5f 	strbvs	r5, [sp, #-3935]!	; 0xfffff0a1
  c8:	72657a6d 	rsbvc	r7, r5, #446464	; 0x6d000
  cc:	0000006f 	andeq	r0, r0, pc, rrx
	...
 100:	3a4760a1 	bcc	11d838c <dispatch+0x11d81a0>
 104:	5f766564 	svcpl	0x00766564
 108:	00727265 	rsbseq	r7, r2, r5, ror #4
	...
 140:	2aee63f4 	bcs	ffb99118 <dispatch+0xffb98f2c>
 144:	756d5f5f 	strbvc	r5, [sp, #-3935]!	; 0xfffff0a1
 148:	5f786574 	svcpl	0x00786574
 14c:	74696e69 	strbtvc	r6, [r9], #-3689	; 0xfffff197
	...
 180:	27e1a049 	strbcs	sl, [r1, r9, asr #32]!
 184:	6e697270 	mcrvs	2, 3, r7, cr9, cr0, {3}
 188:	00006b74 	andeq	r6, r0, r4, ror fp
	...
 1c0:	efd6cf06 	svc	0x00d6cf06
 1c4:	65615f5f 	strbvs	r5, [r1, #-3935]!	; 0xfffff0a1
 1c8:	5f696261 	svcpl	0x00696261
 1cc:	69776e75 	ldmdbvs	r7!, {r0, r2, r4, r5, r6, r9, sl, fp, sp, lr}^
 1d0:	635f646e 	cmpvs	pc, #1845493760	; 0x6e000000
 1d4:	705f7070 	subsvc	r7, pc, r0, ror r0	; <UNPREDICTABLE>
 1d8:	00003072 	andeq	r3, r0, r2, ror r0
	...
